; Function Attrs: mustprogress uwtable
define hidden noundef zeroext i1 @_ZN4cvc58internal6theory11TheoryModel8areEqualENS0_12NodeTemplateILb0EEES4_(ptr nocapture noundef nonnull readonly align 8 dereferenceable(904) %this, ptr nocapture noundef readonly %a, ptr nocapture noundef readonly %b) local_unnamed_addr #3 align 2 personality ptr @__gxx_personality_v0 {
entry:
  %agg.tmp = alloca %"class.cvc5::internal::NodeTemplate.539", align 8
  %agg.tmp4 = alloca %"class.cvc5::internal::NodeTemplate.539", align 8
  %agg.tmp14 = alloca %"class.cvc5::internal::NodeTemplate.539", align 8
  %agg.tmp15 = alloca %"class.cvc5::internal::NodeTemplate.539", align 8
  %0 = load ptr, ptr %a, align 8
  %1 = load ptr, ptr %b, align 8
  %cmp.i = icmp eq ptr %0, %1
  br i1 %cmp.i, label %return, label %if.else

if.else:                                          ; preds = %entry
  %d_equalityEngine = getelementptr inbounds i8, ptr %this, i64 48
  %2 = load ptr, ptr %d_equalityEngine, align 8
  store ptr %0, ptr %agg.tmp, align 8
  %call2 = call noundef zeroext i1 @_ZNK4cvc58internal6theory2eq14EqualityEngine7hasTermENS0_12NodeTemplateILb0EEE(ptr noundef nonnull align 8 dereferenceable(1784) %2, ptr noundef nonnull %agg.tmp)
  br i1 %call2, label %land.rhs, label %return

land.rhs:                                         ; preds = %if.else
  %3 = load ptr, ptr %d_equalityEngine, align 8
  %4 = load ptr, ptr %b, align 8
  store ptr %4, ptr %agg.tmp4, align 8
  %call8 = call noundef zeroext i1 @_ZNK4cvc58internal6theory2eq14EqualityEngine7hasTermENS0_12NodeTemplateILb0EEE(ptr noundef nonnull align 8 dereferenceable(1784) %3, ptr noundef nonnull %agg.tmp4)
  br i1 %call8, label %if.then12, label %return

if.then12:                                        ; preds = %land.rhs
  %5 = load ptr, ptr %d_equalityEngine, align 8
  %6 = load ptr, ptr %a, align 8
  store ptr %6, ptr %agg.tmp14, align 8
  %7 = load ptr, ptr %b, align 8
  store ptr %7, ptr %agg.tmp15, align 8
  %call20 = call noundef zeroext i1 @_ZNK4cvc58internal6theory2eq14EqualityEngine8areEqualENS0_12NodeTemplateILb0EEES5_(ptr noundef nonnull align 8 dereferenceable(1784) %5, ptr noundef nonnull %agg.tmp14, ptr noundef nonnull %agg.tmp15)
  br label %return

return:                                           ; preds = %if.then12, %if.else, %land.rhs, %entry
  %retval.0 = phi i1 [ true, %entry ], [ false, %land.rhs ], [ %call20, %if.then12 ], [ false, %if.else ]
  ret i1 %retval.0
}